target datalayout = "e-m:e-p270:32:32-p271:32:32-p272:64:64-i64:64-i128:128-f80:128-n8:16:32:64-S128"
target triple = "x86_64-pc-linux-gnu"

%struct.Tim_Man_t_ = type { ptr, ptr, ptr, i32, i32, i32, i32, ptr, ptr }
%struct.Tim_Obj_t_ = type { i32, i32, i32, i32, float, float }

; Function Attrs: nounwind uwtable
define i32 @Tim_ManBoxForCo(ptr noundef %0, i32 noundef %1) #0 {
  %3 = alloca i32, align 4
  %4 = alloca ptr, align 8
  %5 = alloca i32, align 4
  store ptr %0, ptr %4, align 8, !tbaa !3
  store i32 %1, ptr %5, align 4, !tbaa !8
  %6 = load i32, ptr %5, align 4, !tbaa !8
  %7 = load ptr, ptr %4, align 8, !tbaa !3
  %8 = getelementptr inbounds nuw %struct.Tim_Man_t_, ptr %7, i32 0, i32 6
  %9 = load i32, ptr %8, align 4, !tbaa !40
  %10 = icmp sge i32 %6, %9
  br i1 %10, label %11, label %12

11:                                               ; preds = %2
  store i32 -1, ptr %3, align 4
  br label %21

12:                                               ; preds = %2
  %13 = load ptr, ptr %4, align 8, !tbaa !3
  %14 = getelementptr inbounds nuw %struct.Tim_Man_t_, ptr %13, i32 0, i32 8
  %15 = load ptr, ptr %14, align 8, !tbaa !24
  %16 = load i32, ptr %5, align 4, !tbaa !8
  %17 = sext i32 %16 to i64
  %18 = getelementptr inbounds %struct.Tim_Obj_t_, ptr %15, i64 %17
  %19 = getelementptr inbounds nuw %struct.Tim_Obj_t_, ptr %18, i32 0, i32 2
  %20 = load i32, ptr %19, align 4, !tbaa !25
  store i32 %20, ptr %3, align 4
  br label %21

21:                                               ; preds = %12, %11
  %22 = load i32, ptr %3, align 4
  ret i32 %22
}